target datalayout = "e-m:e-p270:32:32-p271:32:32-p272:64:64-i64:64-i128:128-f80:128-n8:16:32:64-S128"
target triple = "x86_64-pc-linux-gnu"

%struct.t_pbc = type { i32, i32, i32, i32, [3 x [3 x float]], [3 x float], [3 x float], [3 x float], float, i32, [12 x [3 x i32]], [12 x [3 x float]] }
%"class.gmx::BasicVector" = type { [3 x i32] }

; Function Attrs: mustprogress nounwind uwtable
define linkonce_odr noundef i32 @_ZNK3gmx11BasicVectorIiEixEi(ptr noundef nonnull align 4 dereferenceable(12) %0, i32 noundef %1) #2 comdat align 2 {
  %3 = alloca ptr, align 8
  %4 = alloca i32, align 4
  store ptr %0, ptr %3, align 8, !tbaa !110
  store i32 %1, ptr %4, align 4, !tbaa !36
  %5 = load ptr, ptr %3, align 8
  %6 = getelementptr inbounds nuw %"class.gmx::BasicVector", ptr %5, i32 0, i32 0
  %7 = load i32, ptr %4, align 4, !tbaa !36
  %8 = sext i32 %7 to i64
  %9 = getelementptr inbounds [3 x i32], ptr %6, i64 0, i64 %8
  %10 = load i32, ptr %9, align 4, !tbaa !36
  ret i32 %10
}

; Function Attrs: mustprogress uwtable
define noundef ptr @_Z10set_pbc_ddP5t_pbc7PbcTypePKN3gmx11BasicVectorIiEEbPA3_Kf(ptr noundef %0, i32 noundef %1, ptr noundef %2, i1 noundef zeroext %3, ptr noundef %4) #3 {
  %6 = alloca ptr, align 8
  %7 = alloca ptr, align 8
  %8 = alloca i32, align 4
  %9 = alloca ptr, align 8
  %10 = alloca i8, align 1
  %11 = alloca ptr, align 8
  %12 = alloca [3 x i32], align 4
  %13 = alloca i32, align 4
  %14 = alloca i32, align 4
  store ptr %0, ptr %7, align 8, !tbaa !41
  store i32 %1, ptr %8, align 4, !tbaa !34
  store ptr %2, ptr %9, align 8, !tbaa !110
  %15 = zext i1 %3 to i8
  store i8 %15, ptr %10, align 1, !tbaa !51
  store ptr %4, ptr %11, align 8, !tbaa !48
  %16 = load i32, ptr %8, align 4, !tbaa !34
  %17 = icmp eq i32 %16, 1
  br i1 %17, label %18, label %22

18:                                               ; preds = %5
  %19 = load i32, ptr %8, align 4, !tbaa !34
  %20 = load ptr, ptr %7, align 8, !tbaa !41
  %21 = getelementptr inbounds nuw %struct.t_pbc, ptr %20, i32 0, i32 0
  store i32 %19, ptr %21, align 4, !tbaa !94
  store ptr null, ptr %6, align 8
  br label %91

22:                                               ; preds = %5
  %23 = load ptr, ptr %9, align 8, !tbaa !110
  %24 = icmp eq ptr null, %23
  br i1 %24, label %25, label %29

25:                                               ; preds = %22
  %26 = load ptr, ptr %7, align 8, !tbaa !41
  %27 = load i32, ptr %8, align 4, !tbaa !34
  %28 = load ptr, ptr %11, align 8, !tbaa !48
  call void @_ZL11low_set_pbcP5t_pbc7PbcTypePKiPA3_Kf(ptr noundef %26, i32 noundef %27, ptr noundef null, ptr noundef %28)
  br label %81

29:                                               ; preds = %22
  %30 = load i32, ptr %8, align 4, !tbaa !34
  %31 = icmp eq i32 %30, 3
  br i1 %31, label %32, label %37

32:                                               ; preds = %29
  %33 = load ptr, ptr %9, align 8, !tbaa !110
  %34 = call noundef i32 @_ZNK3gmx11BasicVectorIiEixEi(ptr noundef nonnull align 4 dereferenceable(12) %33, i32 noundef 0)
  %35 = icmp sgt i32 %34, 1
  br i1 %35, label %36, label %37

36:                                               ; preds = %32
  store i32 0, ptr %8, align 4, !tbaa !34
  br label %37

37:                                               ; preds = %36, %32, %29
  call void @llvm.lifetime.start.p0(i64 12, ptr %12) #5
  call void @llvm.lifetime.start.p0(i64 4, ptr %13) #5
  store i32 0, ptr %13, align 4, !tbaa !36
  call void @llvm.lifetime.start.p0(i64 4, ptr %14) #5
  store i32 0, ptr %14, align 4, !tbaa !36
  br label %38

38:                                               ; preds = %66, %37
  %39 = load i32, ptr %14, align 4, !tbaa !36
  %40 = icmp slt i32 %39, 3
  br i1 %40, label %42, label %41

41:                                               ; preds = %38
  call void @llvm.lifetime.end.p0(i64 4, ptr %14) #5
  br label %69

42:                                               ; preds = %38
  %43 = load i32, ptr %14, align 4, !tbaa !36
  %44 = sext i32 %43 to i64
  %45 = getelementptr inbounds [3 x i32], ptr %12, i64 0, i64 %44
  store i32 0, ptr %45, align 4, !tbaa !36
  %46 = load ptr, ptr %9, align 8, !tbaa !110
  %47 = load i32, ptr %14, align 4, !tbaa !36
  %48 = call noundef i32 @_ZNK3gmx11BasicVectorIiEixEi(ptr noundef nonnull align 4 dereferenceable(12) %46, i32 noundef %47)
  %49 = load i8, ptr %10, align 1, !tbaa !51, !range !53, !noundef !54
  %50 = trunc i8 %49 to i1
  %51 = select i1 %50, i32 1, i32 2
  %52 = icmp sle i32 %48, %51
  br i1 %52, label %53, label %65

53:                                               ; preds = %42
  %54 = load i32, ptr %8, align 4, !tbaa !34
  %55 = icmp eq i32 %54, 2
  br i1 %55, label %56, label %59

56:                                               ; preds = %53
  %57 = load i32, ptr %14, align 4, !tbaa !36
  %58 = icmp eq i32 %57, 2
  br i1 %58, label %65, label %59

59:                                               ; preds = %56, %53
  %60 = load i32, ptr %14, align 4, !tbaa !36
  %61 = sext i32 %60 to i64
  %62 = getelementptr inbounds [3 x i32], ptr %12, i64 0, i64 %61
  store i32 1, ptr %62, align 4, !tbaa !36
  %63 = load i32, ptr %13, align 4, !tbaa !36
  %64 = add nsw i32 %63, 1
  store i32 %64, ptr %13, align 4, !tbaa !36
  br label %65

65:                                               ; preds = %59, %56, %42
  br label %66

66:                                               ; preds = %65
  %67 = load i32, ptr %14, align 4, !tbaa !36
  %68 = add nsw i32 %67, 1
  store i32 %68, ptr %14, align 4, !tbaa !36
  br label %38, !llvm.loop !112

69:                                               ; preds = %41
  %70 = load i32, ptr %13, align 4, !tbaa !36
  %71 = icmp sgt i32 %70, 0
  br i1 %71, label %72, label %77

72:                                               ; preds = %69
  %73 = load ptr, ptr %7, align 8, !tbaa !41
  %74 = load i32, ptr %8, align 4, !tbaa !34
  %75 = getelementptr inbounds [3 x i32], ptr %12, i64 0, i64 0
  %76 = load ptr, ptr %11, align 8, !tbaa !48
  call void @_ZL11low_set_pbcP5t_pbc7PbcTypePKiPA3_Kf(ptr noundef %73, i32 noundef %74, ptr noundef %75, ptr noundef %76)
  br label %80

77:                                               ; preds = %69
  %78 = load ptr, ptr %7, align 8, !tbaa !41
  %79 = getelementptr inbounds nuw %struct.t_pbc, ptr %78, i32 0, i32 0
  store i32 1, ptr %79, align 4, !tbaa !94
  br label %80

80:                                               ; preds = %77, %72
  call void @llvm.lifetime.end.p0(i64 4, ptr %13) #5
  call void @llvm.lifetime.end.p0(i64 12, ptr %12) #5
  br label %81

81:                                               ; preds = %80, %25
  %82 = load ptr, ptr %7, align 8, !tbaa !41
  %83 = getelementptr inbounds nuw %struct.t_pbc, ptr %82, i32 0, i32 0
  %84 = load i32, ptr %83, align 4, !tbaa !94
  %85 = icmp ne i32 %84, 1
  br i1 %85, label %86, label %88

86:                                               ; preds = %81
  %87 = load ptr, ptr %7, align 8, !tbaa !41
  br label %89

88:                                               ; preds = %81
  br label %89

89:                                               ; preds = %88, %86
  %90 = phi ptr [ %87, %86 ], [ null, %88 ]
  store ptr %90, ptr %6, align 8
  br label %91

91:                                               ; preds = %89, %18
  %92 = load ptr, ptr %6, align 8
  ret ptr %92
}