; Function Attrs: mustprogress uwtable
define noundef ptr @_Z10set_pbc_ddP5t_pbc7PbcTypePKN3gmx11BasicVectorIiEEbPA3_Kf(ptr noundef %0, i32 noundef %1, ptr noundef readonly %2, i1 noundef zeroext %3, ptr noundef %4) local_unnamed_addr #1 {
  %6 = alloca [3 x i32], align 4
  %7 = icmp eq i32 %1, 1
  br i1 %7, label %8, label %9

8:                                                ; preds = %5
  store i32 1, ptr %0, align 4, !tbaa !32
  br label %41

9:                                                ; preds = %5
  %10 = icmp eq ptr %2, null
  br i1 %10, label %11, label %12

11:                                               ; preds = %9
  tail call fastcc void @_ZL11low_set_pbcP5t_pbc7PbcTypePKiPA3_Kf(ptr noundef %0, i32 noundef %1, ptr noundef null, ptr noundef %4)
  br label %38

12:                                               ; preds = %9
  %13 = icmp eq i32 %1, 3
  br i1 %13, label %.thread, label %17

.thread:                                          ; preds = %12
  %14 = load i32, ptr %2, align 4, !tbaa !26
  %.fr38 = freeze i32 %14
  %15 = icmp sgt i32 %.fr38, 1
  %spec.select = select i1 %15, i32 0, i32 3
  call void @llvm.lifetime.start.p0(i64 12, ptr nonnull %6) #20
  %16 = select i1 %3, i32 1, i32 2
  br label %.split.us.preheader

17:                                               ; preds = %12
  call void @llvm.lifetime.start.p0(i64 12, ptr nonnull %6) #20
  %18 = select i1 %3, i32 1, i32 2
  %19 = icmp eq i32 %1, 2
  br i1 %19, label %.split, label %.split.us.preheader

.split.us.preheader:                              ; preds = %.thread, %17
  %20 = phi i32 [ %16, %.thread ], [ %18, %17 ]
  %.02947 = phi i32 [ %spec.select, %.thread ], [ %1, %17 ]
  br label %.split.us

.split.us:                                        ; preds = %.split.us.preheader, %26
  %indvars.iv = phi i64 [ 0, %.split.us.preheader ], [ %indvars.iv.next, %26 ]
  %.02734.us = phi i32 [ 0, %.split.us.preheader ], [ %.1.us, %26 ]
  %21 = getelementptr inbounds nuw [3 x i32], ptr %6, i64 0, i64 %indvars.iv
  store i32 0, ptr %21, align 4, !tbaa !26
  %22 = getelementptr inbounds nuw [3 x i32], ptr %2, i64 0, i64 %indvars.iv
  %23 = load i32, ptr %22, align 4, !tbaa !26
  %.not.us = icmp sgt i32 %23, %20
  br i1 %.not.us, label %26, label %24

24:                                               ; preds = %.split.us
  store i32 1, ptr %21, align 4, !tbaa !26
  %25 = add nsw i32 %.02734.us, 1
  br label %26

26:                                               ; preds = %24, %.split.us
  %.1.us = phi i32 [ %25, %24 ], [ %.02734.us, %.split.us ]
  %indvars.iv.next = add nuw nsw i64 %indvars.iv, 1
  %exitcond.not = icmp eq i64 %indvars.iv.next, 3
  br i1 %exitcond.not, label %.split37.us, label %.split.us, !llvm.loop !48

.split37.us:                                      ; preds = %34, %26
  %.02946 = phi i32 [ %.02947, %26 ], [ %1, %34 ]
  %.us-phi = phi i32 [ %.1.us, %26 ], [ %.1, %34 ]
  %27 = icmp sgt i32 %.us-phi, 0
  br i1 %27, label %35, label %36

.split:                                           ; preds = %17, %34
  %indvars.iv41 = phi i64 [ %indvars.iv.next42, %34 ], [ 0, %17 ]
  %.02734 = phi i32 [ %.1, %34 ], [ 0, %17 ]
  %28 = getelementptr inbounds nuw [3 x i32], ptr %6, i64 0, i64 %indvars.iv41
  store i32 0, ptr %28, align 4, !tbaa !26
  %29 = getelementptr inbounds nuw [3 x i32], ptr %2, i64 0, i64 %indvars.iv41
  %30 = load i32, ptr %29, align 4, !tbaa !26
  %.not = icmp sgt i32 %30, %18
  %31 = icmp eq i64 %indvars.iv41, 2
  %or.cond = or i1 %.not, %31
  br i1 %or.cond, label %34, label %32

32:                                               ; preds = %.split
  store i32 1, ptr %28, align 4, !tbaa !26
  %33 = add nsw i32 %.02734, 1
  br label %34

34:                                               ; preds = %.split, %32
  %.1 = phi i32 [ %33, %32 ], [ %.02734, %.split ]
  %indvars.iv.next42 = add nuw nsw i64 %indvars.iv41, 1
  %exitcond44.not = icmp eq i64 %indvars.iv.next42, 3
  br i1 %exitcond44.not, label %.split37.us, label %.split, !llvm.loop !48

35:                                               ; preds = %.split37.us
  call fastcc void @_ZL11low_set_pbcP5t_pbc7PbcTypePKiPA3_Kf(ptr noundef %0, i32 noundef %.02946, ptr noundef nonnull %6, ptr noundef %4)
  br label %37

36:                                               ; preds = %.split37.us
  store i32 1, ptr %0, align 4, !tbaa !32
  br label %37

37:                                               ; preds = %36, %35
  call void @llvm.lifetime.end.p0(i64 12, ptr nonnull %6) #20
  br label %38

38:                                               ; preds = %37, %11
  %39 = load i32, ptr %0, align 4, !tbaa !32
  %.not33 = icmp eq i32 %39, 1
  %40 = select i1 %.not33, ptr null, ptr %0
  br label %41

41:                                               ; preds = %38, %8
  %.028 = phi ptr [ null, %8 ], [ %40, %38 ]
  ret ptr %.028
}